target datalayout = "e-m:e-p270:32:32-p271:32:32-p272:64:64-i64:64-i128:128-f80:128-n8:16:32:64-S128"
target triple = "x86_64-pc-linux-gnu"

%struct.GenContext_ = type { i8, ptr, ptr, ptr, ptr, ptr, ptr, ptr, ptr, ptr, ptr, ptr, ptr, ptr, ptr, ptr, ptr, ptr, ptr, ptr, ptr, ptr, ptr, ptr, ptr, ptr, ptr, ptr, ptr, ptr, ptr, ptr, ptr, %struct.anon.85, i32, i32, %struct.DebugContext, ptr, ptr, ptr, %struct.BEValue, i8, %union.SourceSpan, ptr, ptr, ptr, ptr }
%struct.anon.85 = type { ptr, ptr, ptr }
%struct.DebugContext = type { i16, ptr, ptr, %struct.DebugFile_, ptr, ptr, ptr, ptr }
%struct.DebugFile_ = type { i16, ptr }
%struct.BEValue = type { i8, i32, ptr, ptr, ptr }
%union.SourceSpan = type { i64 }
%struct.Type_ = type { i32, ptr, ptr, ptr, %union.anon.90, ptr, ptr, %union.anon.92 }
%union.anon.90 = type { ptr }
%union.anon.92 = type { %struct.TypeFunction }
%struct.TypeFunction = type { ptr, ptr, ptr }

; Function Attrs: nounwind uwtable
define internal ptr @llvm_debug_simple_type(ptr noundef %0, ptr noundef %1, i32 noundef %2) #0 {
  %4 = alloca ptr, align 8
  %5 = alloca ptr, align 8
  %6 = alloca i32, align 4
  store ptr %0, ptr %4, align 8
  store ptr %1, ptr %5, align 8
  store i32 %2, ptr %6, align 4
  %7 = load ptr, ptr %4, align 8
  %8 = getelementptr inbounds %struct.GenContext_, ptr %7, i32 0, i32 36
  %9 = getelementptr inbounds %struct.DebugContext, ptr %8, i32 0, i32 1
  %10 = load ptr, ptr %9, align 8
  %11 = load ptr, ptr %5, align 8
  %12 = getelementptr inbounds %struct.Type_, ptr %11, i32 0, i32 2
  %13 = load ptr, ptr %12, align 8
  %14 = load ptr, ptr %5, align 8
  %15 = getelementptr inbounds %struct.Type_, ptr %14, i32 0, i32 2
  %16 = load ptr, ptr %15, align 8
  %17 = call i64 @strlen(ptr noundef %16) #5
  %18 = load ptr, ptr %5, align 8
  %19 = getelementptr inbounds %struct.Type_, ptr %18, i32 0, i32 7
  %20 = load i32, ptr %19, align 8
  %21 = and i32 %20, 255
  %22 = zext i32 %21 to i64
  %23 = load i32, ptr %6, align 4
  %24 = call ptr @LLVMDIBuilderCreateBasicType(ptr noundef %10, ptr noundef %13, i64 noundef %17, i64 noundef %22, i32 noundef %23, i32 noundef 0)
  %25 = load ptr, ptr %5, align 8
  %26 = getelementptr inbounds %struct.Type_, ptr %25, i32 0, i32 6
  store ptr %24, ptr %26, align 8
  ret ptr %24
}