; Function Attrs: nounwind uwtable
define internal fastcc ptr @llvm_debug_simple_type(ptr %.304.val, ptr nocapture noundef %0, i32 noundef %1) unnamed_addr #0 {
  %3 = getelementptr inbounds i8, ptr %0, i64 16
  %4 = load ptr, ptr %3, align 8
  %5 = tail call i64 @strlen(ptr noundef nonnull dereferenceable(1) %4) #9
  %6 = getelementptr inbounds i8, ptr %0, i64 56
  %7 = load i32, ptr %6, align 8
  %8 = and i32 %7, 255
  %9 = zext nneg i32 %8 to i64
  %10 = tail call ptr @LLVMDIBuilderCreateBasicType(ptr noundef %.304.val, ptr noundef %4, i64 noundef %5, i64 noundef %9, i32 noundef %1, i32 noundef 0) #8
  %11 = getelementptr inbounds i8, ptr %0, i64 48
  store ptr %10, ptr %11, align 8
  ret ptr %10
}